; Function Attrs: mustprogress uwtable
define hidden noundef i64 @_ZN8facebook6hermes7tracing14TracingRuntime4sizeERKNS_3jsi11ArrayBufferE(ptr nocapture noundef nonnull readonly align 8 dereferenceable(172) %this, ptr noundef nonnull align 8 dereferenceable(8) %buf) unnamed_addr #0 align 2 {
entry:
  %plain_.i = getelementptr inbounds i8, ptr %this, i64 16
  %0 = load ptr, ptr %plain_.i, align 8
  %vtable.i = load ptr, ptr %0, align 8
  %vfn.i = getelementptr inbounds i8, ptr %vtable.i, i64 448
  %1 = load ptr, ptr %vfn.i, align 8
  %call.i = tail call noundef i64 %1(ptr noundef nonnull align 8 dereferenceable(8) %0, ptr noundef nonnull align 8 dereferenceable(8) %buf)
  ret i64 %call.i
}